/*
 * Intel ACPI Component Architecture
 * AML/ASL+ Disassembler version 20251212 (32-bit version)
 * Copyright (c) 2000 - 2025 Intel Corporation
 * 
 * Disassembly of FPDT.aml
 *
 * ACPI Data Table [FPDT]
 *
 * Format: [HexOffset DecimalOffset ByteLength]  FieldName : FieldValue (in hex)
 */

[000h 0000 004h]                   Signature : "FPDT"    [Firmware Performance Data Table]
[004h 0004 004h]                Table Length : 00000044
[008h 0008 001h]                    Revision : 01
[009h 0009 001h]                    Checksum : 7E
[00Ah 0010 006h]                      Oem ID : "LGE   "
[010h 0016 008h]                Oem Table ID : "LGPC    "
[018h 0024 004h]                Oem Revision : 20170001
[01Ch 0028 004h]             Asl Compiler ID : "PTEC"
[020h 0032 004h]       Asl Compiler Revision : 00000002


[024h 0036 002h]               Subtable Type : 0000
[026h 0038 001h]                      Length : 10
[027h 0039 001h]                    Revision : 01
[028h 0040 004h]                    Reserved : 00000000
[02Ch 0044 008h]    FPDT Boot Record Address : 000000006F5D8000

[034h 0052 002h]               Subtable Type : 0001
[036h 0054 001h]                      Length : 10
[037h 0055 001h]                    Revision : 01
[038h 0056 004h]                    Reserved : 00000000
[03Ch 0060 008h]         S3PT Record Address : 000000006F8D6000

Raw Table Data: Length 68 (0x44)

    0000: 46 50 44 54 44 00 00 00 01 7E 4C 47 45 20 20 20  // FPDTD....~LGE   
    0010: 4C 47 50 43 20 20 20 20 01 00 17 20 50 54 45 43  // LGPC    ... PTEC
    0020: 02 00 00 00 00 00 10 01 00 00 00 00 00 80 5D 6F  // ..............]o
    0030: 00 00 00 00 01 00 10 01 00 00 00 00 00 60 8D 6F  // .............`.o
    0040: 00 00 00 00                                      // ....
